(lp0
(S'elfflags'
p1
ccopy_reg
_reconstructor
p2
(cino.utils
SpaceList
p3
c__builtin__
list
p4
(lp5
S'-Os'
p6
aS'-Wl,--gc-sections'
p7
aS'-mmcu=atmega328p'
p8
atp9
Rp10
tp11
a(S'version.txt'
p12
S'/usr/share/arduino/lib/version.txt'
p13
tp14
a(S'used_libs'
p15
(lp16
S'lib/PinChangeInt'
p17
aS'lib/RCArduinoFastLib'
p18
aS'/usr/share/arduino/hardware/arduino/cores/arduino'
p19
atp20
a(S'cc'
p21
S'/usr/bin/avr-gcc'
p22
tp23
a(S'cflags'
p24
g2
(g3
g4
(lp25
g8
aS'-ffunction-sections'
p26
aS'-fdata-sections'
p27
aS'-g'
p28
ag6
aS'-w'
p29
aS'-DF_CPU=16000000L'
p30
aS'-DARDUINO=100'
p31
aS'-I/usr/share/arduino/hardware/arduino/cores/arduino'
p32
aS'-I/usr/share/arduino/hardware/arduino/variants/standard'
p33
aS'-Ilib/PinChangeInt'
p34
aS'-Ilib/PinChangeInt/Examples'
p35
aS'-Ilib/PinChangeInt/Examples/ByteBuffer'
p36
aS'-Ilib/PinChangeInt/Examples/GetPSTR'
p37
aS'-Ilib/PinChangeInt/Examples/PinChangeIntSpeedTest'
p38
aS'-Ilib/PinChangeInt/Examples/PinChangeIntTest2'
p39
aS'-Ilib/PinChangeInt/Examples/PinChangeIntTest'
p40
aS'-Ilib/PinChangeInt/Examples/PinChangeIntExample'
p41
aS'-Ilib/RCArduinoFastLib'
p42
aS'-I/usr/share/arduino/hardware/arduino/cores/arduino'
p43
atp44
Rp45
tp46
a(S'build_dir'
p47
S'.build/uno'
p48
tp49
a(S'arduino_core_dir'
p50
g19
tp51
a(S'boards.txt'
p52
S'/usr/share/arduino/hardware/arduino/boards.txt'
p53
tp54
a(S'cxxflags'
p55
g2
(g3
g4
(lp56
S'-fno-exceptions'
p57
atp58
Rp59
tp60
a(S'arduino_variants_dir'
p61
S'/usr/share/arduino/hardware/arduino/variants'
p62
tp63
a(S'ar'
p64
S'/usr/bin/avr-ar'
p65
tp66
a(S'names'
p67
(dp68
S'cpp'
p69
S'%s.cpp'
p70
sS'obj'
p71
S'%s.o'
p72
sS'deps'
p73
S'%s.d'
p74
sS'lib'
p75
S'lib%s.a'
p76
stp77
a(S'deps'
p78
g2
(g3
g4
(lp79
S'.build/uno/src/dependencies.d'
p80
aS'.build/uno/arduino/dependencies.d'
p81
aS'.build/uno/PinChangeInt/dependencies.d'
p82
aS'.build/uno/RCArduinoFastLib/dependencies.d'
p83
atp84
Rp85
tp86
a(S'arduino_libraries_dir'
p87
S'/usr/share/arduino/libraries'
p88
tp89
a(S'arduino_lib_version'
p90
g2
(cino.environment
Version
p91
c__builtin__
tuple
p92
(I1
I0
tp93
tp94
Rp95
tp96
a(S'objcopy'
p97
S'/usr/bin/avr-objcopy'
p98
tp99
a(S'board_models'
p100
cino.environment
BoardModels
p101
((lp102
(lp103
S'uno'
p104
a(dp105
S'bootloader'
p106
(dp107
S'extended_fuses'
p108
S'0x05'
p109
sS'high_fuses'
p110
S'0xde'
p111
sS'low_fuses'
p112
S'0xff'
p113
sS'lock_bits'
p114
S'0x0F'
p115
sS'file'
p116
S'optiboot_atmega328.hex'
p117
sS'path'
p118
S'optiboot'
p119
sS'unlock_bits'
p120
S'0x3F'
p121
ssS'upload'
p122
(dp123
S'protocol'
p124
S'arduino'
p125
sS'maximum_size'
p126
S'32256'
p127
sS'speed'
p128
S'115200'
p129
ssS'build'
p130
(dp131
S'core'
p132
S'arduino'
p133
sS'mcu'
p134
S'atmega328p'
p135
sS'f_cpu'
p136
S'16000000L'
p137
sS'variant'
p138
S'standard'
p139
ssS'name'
p140
S'Arduino Uno'
p141
saa(lp142
S'atmega328'
p143
a(dp144
S'bootloader'
p145
(dp146
S'extended_fuses'
p147
S'0x05'
p148
sS'high_fuses'
p149
S'0xDA'
p150
sS'low_fuses'
p151
S'0xFF'
p152
sS'lock_bits'
p153
S'0x0F'
p154
sS'file'
p155
S'ATmegaBOOT_168_atmega328.hex'
p156
sS'path'
p157
S'atmega'
p158
sS'unlock_bits'
p159
S'0x3F'
p160
ssS'upload'
p161
(dp162
S'protocol'
p163
S'arduino'
p164
sS'maximum_size'
p165
S'30720'
p166
sS'speed'
p167
S'57600'
p168
ssS'build'
p169
(dp170
S'core'
p171
S'arduino'
p172
sS'mcu'
p173
S'atmega328p'
p174
sS'f_cpu'
p175
S'16000000L'
p176
sS'variant'
p177
S'standard'
p178
ssS'name'
p179
S'Arduino Duemilanove w/ ATmega328'
p180
saa(lp181
S'diecimila'
p182
a(dp183
S'bootloader'
p184
(dp185
S'extended_fuses'
p186
S'0x00'
p187
sS'high_fuses'
p188
S'0xdd'
p189
sS'low_fuses'
p190
S'0xff'
p191
sS'lock_bits'
p192
S'0x0F'
p193
sS'file'
p194
S'ATmegaBOOT_168_diecimila.hex'
p195
sS'path'
p196
S'atmega'
p197
sS'unlock_bits'
p198
S'0x3F'
p199
ssS'upload'
p200
(dp201
S'protocol'
p202
S'arduino'
p203
sS'maximum_size'
p204
S'14336'
p205
sS'speed'
p206
S'19200'
p207
ssS'build'
p208
(dp209
S'core'
p210
S'arduino'
p211
sS'mcu'
p212
S'atmega168'
p213
sS'f_cpu'
p214
S'16000000L'
p215
sS'variant'
p216
S'standard'
p217
ssS'name'
p218
S'Arduino Diecimila or Duemilanove w/ ATmega168'
p219
saa(lp220
S'nano328'
p221
a(dp222
S'bootloader'
p223
(dp224
S'extended_fuses'
p225
S'0x05'
p226
sS'high_fuses'
p227
S'0xDA'
p228
sS'low_fuses'
p229
S'0xFF'
p230
sS'lock_bits'
p231
S'0x0F'
p232
sS'file'
p233
S'ATmegaBOOT_168_atmega328.hex'
p234
sS'path'
p235
S'atmega'
p236
sS'unlock_bits'
p237
S'0x3F'
p238
ssS'upload'
p239
(dp240
S'protocol'
p241
S'arduino'
p242
sS'maximum_size'
p243
S'30720'
p244
sS'speed'
p245
S'57600'
p246
ssS'build'
p247
(dp248
S'core'
p249
S'arduino'
p250
sS'mcu'
p251
S'atmega328p'
p252
sS'f_cpu'
p253
S'16000000L'
p254
sS'variant'
p255
S'eightanaloginputs'
p256
ssS'name'
p257
S'Arduino Nano w/ ATmega328'
p258
saa(lp259
S'nano'
p260
a(dp261
S'bootloader'
p262
(dp263
S'extended_fuses'
p264
S'0x00'
p265
sS'high_fuses'
p266
S'0xdd'
p267
sS'low_fuses'
p268
S'0xff'
p269
sS'lock_bits'
p270
S'0x0F'
p271
sS'file'
p272
S'ATmegaBOOT_168_diecimila.hex'
p273
sS'path'
p274
S'atmega'
p275
sS'unlock_bits'
p276
S'0x3F'
p277
ssS'upload'
p278
(dp279
S'protocol'
p280
S'arduino'
p281
sS'maximum_size'
p282
S'14336'
p283
sS'speed'
p284
S'19200'
p285
ssS'build'
p286
(dp287
S'core'
p288
S'arduino'
p289
sS'mcu'
p290
S'atmega168'
p291
sS'f_cpu'
p292
S'16000000L'
p293
sS'variant'
p294
S'eightanaloginputs'
p295
ssS'name'
p296
S'Arduino Nano w/ ATmega168'
p297
saa(lp298
S'mega2560'
p299
a(dp300
S'bootloader'
p301
(dp302
S'extended_fuses'
p303
S'0xFD'
p304
sS'high_fuses'
p305
S'0xD8'
p306
sS'low_fuses'
p307
S'0xFF'
p308
sS'lock_bits'
p309
S'0x0F'
p310
sS'file'
p311
S'stk500boot_v2_mega2560.hex'
p312
sS'path'
p313
S'stk500v2'
p314
sS'unlock_bits'
p315
S'0x3F'
p316
ssS'upload'
p317
(dp318
S'protocol'
p319
S'stk500v2'
p320
sS'maximum_size'
p321
S'258048'
p322
sS'speed'
p323
S'115200'
p324
ssS'build'
p325
(dp326
S'core'
p327
S'arduino'
p328
sS'mcu'
p329
S'atmega2560'
p330
sS'f_cpu'
p331
S'16000000L'
p332
sS'variant'
p333
S'mega'
p334
ssS'name'
p335
S'Arduino Mega 2560 or Mega ADK'
p336
saa(lp337
S'mega'
p338
a(dp339
S'bootloader'
p340
(dp341
S'extended_fuses'
p342
S'0xF5'
p343
sS'high_fuses'
p344
S'0xDA'
p345
sS'low_fuses'
p346
S'0xFF'
p347
sS'lock_bits'
p348
S'0x0F'
p349
sS'file'
p350
S'ATmegaBOOT_168_atmega1280.hex'
p351
sS'path'
p352
S'atmega'
p353
sS'unlock_bits'
p354
S'0x3F'
p355
ssS'upload'
p356
(dp357
S'protocol'
p358
S'arduino'
p359
sS'maximum_size'
p360
S'126976'
p361
sS'speed'
p362
S'57600'
p363
ssS'build'
p364
(dp365
S'core'
p366
S'arduino'
p367
sS'mcu'
p368
S'atmega1280'
p369
sS'f_cpu'
p370
S'16000000L'
p371
sS'variant'
p372
S'mega'
p373
ssS'name'
p374
S'Arduino Mega (ATmega1280)'
p375
saa(lp376
S'mini328'
p377
a(dp378
S'bootloader'
p379
(dp380
S'extended_fuses'
p381
S'0x05'
p382
sS'high_fuses'
p383
S'0xd8'
p384
sS'low_fuses'
p385
S'0xff'
p386
sS'lock_bits'
p387
S'0x0F'
p388
sS'file'
p389
S'optiboot_atmega328-Mini.hex'
p390
sS'path'
p391
S'optiboot'
p392
sS'unlock_bits'
p393
S'0x3F'
p394
ssS'upload'
p395
(dp396
S'protocol'
p397
S'stk500'
p398
sS'maximum_size'
p399
S'28672'
p400
sS'speed'
p401
S'115200'
p402
ssS'build'
p403
(dp404
S'core'
p405
S'arduino'
p406
sS'mcu'
p407
S'atmega328p'
p408
sS'f_cpu'
p409
S'16000000L'
p410
sS'variant'
p411
S'eightanaloginputs'
p412
ssS'name'
p413
S'Arduino Mini w/ ATmega328'
p414
saa(lp415
S'mini'
p416
a(dp417
S'bootloader'
p418
(dp419
S'extended_fuses'
p420
S'0x00'
p421
sS'high_fuses'
p422
S'0xdd'
p423
sS'low_fuses'
p424
S'0xff'
p425
sS'lock_bits'
p426
S'0x0F'
p427
sS'file'
p428
S'ATmegaBOOT_168_ng.hex'
p429
sS'path'
p430
S'atmega'
p431
sS'unlock_bits'
p432
S'0x3F'
p433
ssS'upload'
p434
(dp435
S'protocol'
p436
S'arduino'
p437
sS'maximum_size'
p438
S'14336'
p439
sS'speed'
p440
S'19200'
p441
ssS'build'
p442
(dp443
S'core'
p444
S'arduino'
p445
sS'mcu'
p446
S'atmega168'
p447
sS'f_cpu'
p448
S'16000000L'
p449
sS'variant'
p450
S'eightanaloginputs'
p451
ssS'name'
p452
S'Arduino Mini w/ ATmega168'
p453
saa(lp454
S'ethernet'
p455
a(dp456
S'bootloader'
p457
(dp458
S'extended_fuses'
p459
S'0x05'
p460
sS'high_fuses'
p461
S'0xde'
p462
sS'low_fuses'
p463
S'0xff'
p464
sS'lock_bits'
p465
S'0x0F'
p466
sS'file'
p467
S'optiboot_atmega328.hex'
p468
sS'path'
p469
S'optiboot'
p470
sS'unlock_bits'
p471
S'0x3F'
p472
ssS'upload'
p473
(dp474
S'protocol'
p475
S'arduino'
p476
sS'maximum_size'
p477
S'32256'
p478
sS'speed'
p479
S'115200'
p480
ssS'build'
p481
(dp482
S'variant'
p483
S'standard'
p484
sS'mcu'
p485
S'atmega328p'
p486
sS'f_cpu'
p487
S'16000000L'
p488
sS'core'
p489
S'arduino'
p490
ssS'name'
p491
S'Arduino Ethernet'
p492
saa(lp493
S'fio'
p494
a(dp495
S'bootloader'
p496
(dp497
S'extended_fuses'
p498
S'0x05'
p499
sS'high_fuses'
p500
S'0xDA'
p501
sS'low_fuses'
p502
S'0xFF'
p503
sS'lock_bits'
p504
S'0x0F'
p505
sS'file'
p506
S'ATmegaBOOT_168_atmega328_pro_8MHz.hex'
p507
sS'path'
p508
S'arduino:atmega'
p509
sS'unlock_bits'
p510
S'0x3F'
p511
ssS'upload'
p512
(dp513
S'protocol'
p514
S'arduino'
p515
sS'maximum_size'
p516
S'30720'
p517
sS'speed'
p518
S'57600'
p519
ssS'build'
p520
(dp521
S'core'
p522
S'arduino'
p523
sS'mcu'
p524
S'atmega328p'
p525
sS'f_cpu'
p526
S'8000000L'
p527
sS'variant'
p528
S'eightanaloginputs'
p529
ssS'name'
p530
S'Arduino Fio'
p531
saa(lp532
S'bt328'
p533
a(dp534
S'bootloader'
p535
(dp536
S'extended_fuses'
p537
S'0x05'
p538
sS'high_fuses'
p539
S'0xd8'
p540
sS'low_fuses'
p541
S'0xff'
p542
sS'lock_bits'
p543
S'0x0F'
p544
sS'file'
p545
S'ATmegaBOOT_168_atmega328_bt.hex'
p546
sS'path'
p547
S'bt'
p548
sS'unlock_bits'
p549
S'0x3F'
p550
ssS'upload'
p551
(dp552
S'protocol'
p553
S'arduino'
p554
sS'maximum_size'
p555
S'28672'
p556
sS'speed'
p557
S'19200'
p558
sS'disable_flushing'
p559
S'true'
p560
ssS'build'
p561
(dp562
S'core'
p563
S'arduino'
p564
sS'mcu'
p565
S'atmega328p'
p566
sS'f_cpu'
p567
S'16000000L'
p568
sS'variant'
p569
S'eightanaloginputs'
p570
ssS'name'
p571
S'Arduino BT w/ ATmega328'
p572
saa(lp573
S'bt'
p574
a(dp575
S'bootloader'
p576
(dp577
S'extended_fuses'
p578
S'0x00'
p579
sS'high_fuses'
p580
S'0xdd'
p581
sS'low_fuses'
p582
S'0xff'
p583
sS'lock_bits'
p584
S'0x0F'
p585
sS'file'
p586
S'ATmegaBOOT_168.hex'
p587
sS'path'
p588
S'bt'
p589
sS'unlock_bits'
p590
S'0x3F'
p591
ssS'upload'
p592
(dp593
S'protocol'
p594
S'arduino'
p595
sS'maximum_size'
p596
S'14336'
p597
sS'speed'
p598
S'19200'
p599
sS'disable_flushing'
p600
S'true'
p601
ssS'build'
p602
(dp603
S'core'
p604
S'arduino'
p605
sS'mcu'
p606
S'atmega168'
p607
sS'f_cpu'
p608
S'16000000L'
p609
sS'variant'
p610
S'eightanaloginputs'
p611
ssS'name'
p612
S'Arduino BT w/ ATmega168'
p613
saa(lp614
S'lilypad328'
p615
a(dp616
S'bootloader'
p617
(dp618
S'extended_fuses'
p619
S'0x05'
p620
sS'high_fuses'
p621
S'0xDA'
p622
sS'low_fuses'
p623
S'0xFF'
p624
sS'lock_bits'
p625
S'0x0F'
p626
sS'file'
p627
S'ATmegaBOOT_168_atmega328_pro_8MHz.hex'
p628
sS'path'
p629
S'atmega'
p630
sS'unlock_bits'
p631
S'0x3F'
p632
ssS'upload'
p633
(dp634
S'protocol'
p635
S'arduino'
p636
sS'maximum_size'
p637
S'30720'
p638
sS'speed'
p639
S'57600'
p640
ssS'build'
p641
(dp642
S'core'
p643
S'arduino'
p644
sS'mcu'
p645
S'atmega328p'
p646
sS'f_cpu'
p647
S'8000000L'
p648
sS'variant'
p649
S'standard'
p650
ssS'name'
p651
S'LilyPad Arduino w/ ATmega328'
p652
saa(lp653
S'lilypad'
p654
a(dp655
S'bootloader'
p656
(dp657
S'extended_fuses'
p658
S'0x00'
p659
sS'high_fuses'
p660
S'0xdd'
p661
sS'low_fuses'
p662
S'0xe2'
p663
sS'lock_bits'
p664
S'0x0F'
p665
sS'file'
p666
S'LilyPadBOOT_168.hex'
p667
sS'path'
p668
S'lilypad'
p669
sS'unlock_bits'
p670
S'0x3F'
p671
ssS'upload'
p672
(dp673
S'protocol'
p674
S'arduino'
p675
sS'maximum_size'
p676
S'14336'
p677
sS'speed'
p678
S'19200'
p679
ssS'build'
p680
(dp681
S'core'
p682
S'arduino'
p683
sS'mcu'
p684
S'atmega168'
p685
sS'f_cpu'
p686
S'8000000L'
p687
sS'variant'
p688
S'standard'
p689
ssS'name'
p690
S'LilyPad Arduino w/ ATmega168'
p691
saa(lp692
S'pro5v328'
p693
a(dp694
S'bootloader'
p695
(dp696
S'extended_fuses'
p697
S'0x05'
p698
sS'high_fuses'
p699
S'0xDA'
p700
sS'low_fuses'
p701
S'0xFF'
p702
sS'lock_bits'
p703
S'0x0F'
p704
sS'file'
p705
S'ATmegaBOOT_168_atmega328.hex'
p706
sS'path'
p707
S'atmega'
p708
sS'unlock_bits'
p709
S'0x3F'
p710
ssS'upload'
p711
(dp712
S'protocol'
p713
S'arduino'
p714
sS'maximum_size'
p715
S'30720'
p716
sS'speed'
p717
S'57600'
p718
ssS'build'
p719
(dp720
S'core'
p721
S'arduino'
p722
sS'mcu'
p723
S'atmega328p'
p724
sS'f_cpu'
p725
S'16000000L'
p726
sS'variant'
p727
S'standard'
p728
ssS'name'
p729
S'Arduino Pro or Pro Mini (5V, 16 MHz) w/ ATmega328'
p730
saa(lp731
S'pro5v'
p732
a(dp733
S'bootloader'
p734
(dp735
S'extended_fuses'
p736
S'0x00'
p737
sS'high_fuses'
p738
S'0xdd'
p739
sS'low_fuses'
p740
S'0xff'
p741
sS'lock_bits'
p742
S'0x0F'
p743
sS'file'
p744
S'ATmegaBOOT_168_diecimila.hex'
p745
sS'path'
p746
S'atmega'
p747
sS'unlock_bits'
p748
S'0x3F'
p749
ssS'upload'
p750
(dp751
S'protocol'
p752
S'arduino'
p753
sS'maximum_size'
p754
S'14336'
p755
sS'speed'
p756
S'19200'
p757
ssS'build'
p758
(dp759
S'core'
p760
S'arduino'
p761
sS'mcu'
p762
S'atmega168'
p763
sS'f_cpu'
p764
S'16000000L'
p765
sS'variant'
p766
S'standard'
p767
ssS'name'
p768
S'Arduino Pro or Pro Mini (5V, 16 MHz) w/ ATmega168'
p769
saa(lp770
S'pro328'
p771
a(dp772
S'bootloader'
p773
(dp774
S'extended_fuses'
p775
S'0x05'
p776
sS'high_fuses'
p777
S'0xDA'
p778
sS'low_fuses'
p779
S'0xFF'
p780
sS'lock_bits'
p781
S'0x0F'
p782
sS'file'
p783
S'ATmegaBOOT_168_atmega328_pro_8MHz.hex'
p784
sS'path'
p785
S'atmega'
p786
sS'unlock_bits'
p787
S'0x3F'
p788
ssS'upload'
p789
(dp790
S'protocol'
p791
S'arduino'
p792
sS'maximum_size'
p793
S'30720'
p794
sS'speed'
p795
S'57600'
p796
ssS'build'
p797
(dp798
S'core'
p799
S'arduino'
p800
sS'mcu'
p801
S'atmega328p'
p802
sS'f_cpu'
p803
S'8000000L'
p804
sS'variant'
p805
S'standard'
p806
ssS'name'
p807
S'Arduino Pro or Pro Mini (3.3V, 8 MHz) w/ ATmega328'
p808
saa(lp809
S'pro'
p810
a(dp811
S'bootloader'
p812
(dp813
S'extended_fuses'
p814
S'0x00'
p815
sS'high_fuses'
p816
S'0xdd'
p817
sS'low_fuses'
p818
S'0xc6'
p819
sS'lock_bits'
p820
S'0x0F'
p821
sS'file'
p822
S'ATmegaBOOT_168_pro_8MHz.hex'
p823
sS'path'
p824
S'atmega'
p825
sS'unlock_bits'
p826
S'0x3F'
p827
ssS'upload'
p828
(dp829
S'protocol'
p830
S'arduino'
p831
sS'maximum_size'
p832
S'14336'
p833
sS'speed'
p834
S'19200'
p835
ssS'build'
p836
(dp837
S'core'
p838
S'arduino'
p839
sS'mcu'
p840
S'atmega168'
p841
sS'f_cpu'
p842
S'8000000L'
p843
sS'variant'
p844
S'standard'
p845
ssS'name'
p846
S'Arduino Pro or Pro Mini (3.3V, 8 MHz) w/ ATmega168'
p847
saa(lp848
S'atmega168'
p849
a(dp850
S'bootloader'
p851
(dp852
S'extended_fuses'
p853
S'0x00'
p854
sS'high_fuses'
p855
S'0xdd'
p856
sS'low_fuses'
p857
S'0xff'
p858
sS'lock_bits'
p859
S'0x0F'
p860
sS'file'
p861
S'ATmegaBOOT_168_ng.hex'
p862
sS'path'
p863
S'atmega'
p864
sS'unlock_bits'
p865
S'0x3F'
p866
ssS'upload'
p867
(dp868
S'protocol'
p869
S'arduino'
p870
sS'maximum_size'
p871
S'14336'
p872
sS'speed'
p873
S'19200'
p874
ssS'build'
p875
(dp876
S'core'
p877
S'arduino'
p878
sS'mcu'
p879
S'atmega168'
p880
sS'f_cpu'
p881
S'16000000L'
p882
sS'variant'
p883
S'standard'
p884
ssS'name'
p885
S'Arduino NG or older w/ ATmega168'
p886
saa(lp887
S'atmega8'
p888
a(dp889
S'bootloader'
p890
(dp891
S'high_fuses'
p892
S'0xca'
p893
sS'low_fuses'
p894
S'0xdf'
p895
sS'lock_bits'
p896
S'0x0F'
p897
sS'file'
p898
S'ATmegaBOOT.hex'
p899
sS'path'
p900
S'atmega8'
p901
sS'unlock_bits'
p902
S'0x3F'
p903
ssS'upload'
p904
(dp905
S'protocol'
p906
S'arduino'
p907
sS'maximum_size'
p908
S'7168'
p909
sS'speed'
p910
S'19200'
p911
ssS'build'
p912
(dp913
S'core'
p914
S'arduino'
p915
sS'mcu'
p916
S'atmega8'
p917
sS'f_cpu'
p918
S'16000000L'
p919
sS'variant'
p920
S'standard'
p921
ssS'name'
p922
S'Arduino NG or older w/ ATmega8'
p923
saatp924
Rp925
(dp926
S'default'
p927
S'uno'
p928
sbtp929
a(S'cxx'
p930
S'/usr/bin/avr-g++'
p931
tp932
a.